target datalayout = "e-m:e-p270:32:32-p271:32:32-p272:64:64-i64:64-i128:128-f80:128-n8:16:32:64-S128"
target triple = "x86_64-pc-linux-gnu"

@.str = private unnamed_addr constant [42 x i8] c"javax/sound/midi/MidiUnavailableException\00", align 1

; Function Attrs: nounwind uwtable
define void @Java_com_sun_media_sound_MidiInDevice_nStart(ptr noundef %0, ptr noundef %1, i64 noundef %2) #0 {
  %4 = alloca ptr, align 8
  %5 = alloca ptr, align 8
  %6 = alloca i64, align 8
  %7 = alloca i32, align 4
  store ptr %0, ptr %4, align 8
  store ptr %1, ptr %5, align 8
  store i64 %2, ptr %6, align 8
  store i32 -11111, ptr %7, align 4
  %8 = load i64, ptr %6, align 8
  %9 = inttoptr i64 %8 to ptr
  %10 = call i32 @MIDI_IN_StartDevice(ptr noundef %9)
  store i32 %10, ptr %7, align 4
  %11 = load i32, ptr %7, align 4
  %12 = icmp ne i32 %11, 0
  br i1 %12, label %13, label %17

13:                                               ; preds = %3
  %14 = load ptr, ptr %4, align 8
  %15 = load i32, ptr %7, align 4
  %16 = call ptr @MIDI_IN_InternalGetErrorString(i32 noundef %15)
  call void @ThrowJavaMessageException(ptr noundef %14, ptr noundef @.str, ptr noundef %16)
  br label %18

17:                                               ; preds = %3
  br label %18

18:                                               ; preds = %17, %13
  ret void
}