; Function Attrs: nounwind uwtable
define void @Java_com_sun_media_sound_MidiInDevice_nStart(ptr noundef %0, ptr nocapture noundef readnone %1, i64 noundef %2) local_unnamed_addr #0 {
  %4 = inttoptr i64 %2 to ptr
  %5 = tail call i32 @MIDI_IN_StartDevice(ptr noundef %4) #4
  %.not = icmp eq i32 %5, 0
  br i1 %.not, label %8, label %6

6:                                                ; preds = %3
  %7 = tail call ptr @MIDI_IN_InternalGetErrorString(i32 noundef %5) #4
  tail call void @ThrowJavaMessageException(ptr noundef %0, ptr noundef nonnull @.str, ptr noundef %7) #4
  br label %8

8:                                                ; preds = %3, %6
  ret void
}